target datalayout = "e-m:e-p270:32:32-p271:32:32-p272:64:64-i64:64-i128:128-f80:128-n8:16:32:64-S128"
target triple = "x86_64-pc-linux-gnu"

%struct.CONF_VALUE = type { ptr, ptr, ptr }

@.str.10 = private unnamed_addr constant [6 x i8] c"email\00", align 1
@.str.15 = private unnamed_addr constant [32 x i8] c"../openssl/crypto/x509/v3_san.c\00", align 1
@.str.38 = private unnamed_addr constant [5 x i8] c"copy\00", align 1
@__func__.v2i_subject_alt = private unnamed_addr constant [16 x i8] c"v2i_subject_alt\00", align 1
@.str.39 = private unnamed_addr constant [5 x i8] c"move\00", align 1

; Function Attrs: inlinehint nounwind uwtable
define internal ptr @ossl_check_GENERAL_NAME_freefunc_type(ptr noundef %0) #3 {
  %2 = alloca ptr, align 8
  store ptr %0, ptr %2, align 8, !tbaa !20
  %3 = load ptr, ptr %2, align 8, !tbaa !20
  ret ptr %3
}

; Function Attrs: inlinehint nounwind uwtable
define internal ptr @ossl_check_GENERAL_NAME_type(ptr noundef %0) #3 {
  %2 = alloca ptr, align 8
  store ptr %0, ptr %2, align 8, !tbaa !14
  %3 = load ptr, ptr %2, align 8, !tbaa !14
  ret ptr %3
}

; Function Attrs: inlinehint nounwind uwtable
define internal ptr @ossl_check_GENERAL_NAME_sk_type(ptr noundef %0) #3 {
  %2 = alloca ptr, align 8
  store ptr %0, ptr %2, align 8, !tbaa !8
  %3 = load ptr, ptr %2, align 8, !tbaa !8
  ret ptr %3
}

; Function Attrs: nounwind uwtable
define ptr @v2i_GENERAL_NAME(ptr noundef %0, ptr noundef %1, ptr noundef %2) #1 {
  %4 = alloca ptr, align 8
  %5 = alloca ptr, align 8
  %6 = alloca ptr, align 8
  store ptr %0, ptr %4, align 8, !tbaa !3
  store ptr %1, ptr %5, align 8, !tbaa !18
  store ptr %2, ptr %6, align 8, !tbaa !20
  %7 = load ptr, ptr %4, align 8, !tbaa !3
  %8 = load ptr, ptr %5, align 8, !tbaa !18
  %9 = load ptr, ptr %6, align 8, !tbaa !20
  %10 = call ptr @v2i_GENERAL_NAME_ex(ptr noundef null, ptr noundef %7, ptr noundef %8, ptr noundef %9, i32 noundef 0)
  ret ptr %10
}

; Function Attrs: inlinehint nounwind uwtable
define internal ptr @ossl_check_GENERAL_NAME_compfunc_type(ptr noundef %0) #3 {
  %2 = alloca ptr, align 8
  store ptr %0, ptr %2, align 8, !tbaa !20
  %3 = load ptr, ptr %2, align 8, !tbaa !20
  ret ptr %3
}

; Function Attrs: inlinehint nounwind uwtable
define internal ptr @ossl_check_const_CONF_VALUE_sk_type(ptr noundef %0) #3 {
  %2 = alloca ptr, align 8
  store ptr %0, ptr %2, align 8, !tbaa !10
  %3 = load ptr, ptr %2, align 8, !tbaa !10
  ret ptr %3
}

; Function Attrs: nounwind uwtable
define internal ptr @v2i_subject_alt(ptr noundef %0, ptr noundef %1, ptr noundef %2) #1 {
  %4 = alloca ptr, align 8
  %5 = alloca ptr, align 8
  %6 = alloca ptr, align 8
  %7 = alloca ptr, align 8
  %8 = alloca ptr, align 8
  %9 = alloca ptr, align 8
  %10 = alloca i32, align 4
  %11 = alloca i32, align 4
  %12 = alloca i32, align 4
  %13 = alloca ptr, align 8
  store ptr %0, ptr %5, align 8, !tbaa !3
  store ptr %1, ptr %6, align 8, !tbaa !18
  store ptr %2, ptr %7, align 8, !tbaa !10
  call void @llvm.lifetime.start.p0(i64 8, ptr %8) #5
  call void @llvm.lifetime.start.p0(i64 8, ptr %9) #5
  call void @llvm.lifetime.start.p0(i64 4, ptr %10) #5
  %14 = load ptr, ptr %7, align 8, !tbaa !10
  %15 = call ptr @ossl_check_const_CONF_VALUE_sk_type(ptr noundef %14)
  %16 = call i32 @OPENSSL_sk_num(ptr noundef %15)
  store i32 %16, ptr %10, align 4, !tbaa !12
  call void @llvm.lifetime.start.p0(i64 4, ptr %11) #5
  %17 = call ptr @ossl_check_GENERAL_NAME_compfunc_type(ptr noundef null)
  %18 = load i32, ptr %10, align 4, !tbaa !12
  %19 = call ptr @OPENSSL_sk_new_reserve(ptr noundef %17, i32 noundef %18)
  store ptr %19, ptr %8, align 8, !tbaa !8
  %20 = load ptr, ptr %8, align 8, !tbaa !8
  %21 = icmp eq ptr %20, null
  br i1 %21, label %22, label %23

22:                                               ; preds = %3
  call void @ERR_new()
  call void @ERR_set_debug(ptr noundef @.str.15, i32 noundef 389, ptr noundef @__func__.v2i_subject_alt)
  call void (i32, i32, ptr, ...) @ERR_set_error(i32 noundef 34, i32 noundef 524303, ptr noundef null)
  store ptr null, ptr %4, align 8
  store i32 1, ptr %12, align 4
  br label %107

23:                                               ; preds = %3
  store i32 0, ptr %11, align 4, !tbaa !12
  br label %24

24:                                               ; preds = %98, %23
  %25 = load i32, ptr %11, align 4, !tbaa !12
  %26 = load i32, ptr %10, align 4, !tbaa !12
  %27 = icmp slt i32 %25, %26
  br i1 %27, label %28, label %101

28:                                               ; preds = %24
  %29 = load ptr, ptr %7, align 8, !tbaa !10
  %30 = call ptr @ossl_check_const_CONF_VALUE_sk_type(ptr noundef %29)
  %31 = load i32, ptr %11, align 4, !tbaa !12
  %32 = call ptr @OPENSSL_sk_value(ptr noundef %30, i32 noundef %31)
  store ptr %32, ptr %9, align 8, !tbaa !20
  %33 = load ptr, ptr %9, align 8, !tbaa !20
  %34 = getelementptr inbounds nuw %struct.CONF_VALUE, ptr %33, i32 0, i32 1
  %35 = load ptr, ptr %34, align 8, !tbaa !21
  %36 = call i32 @ossl_v3_name_cmp(ptr noundef %35, ptr noundef @.str.10)
  %37 = icmp eq i32 %36, 0
  br i1 %37, label %38, label %56

38:                                               ; preds = %28
  %39 = load ptr, ptr %9, align 8, !tbaa !20
  %40 = getelementptr inbounds nuw %struct.CONF_VALUE, ptr %39, i32 0, i32 2
  %41 = load ptr, ptr %40, align 8, !tbaa !24
  %42 = icmp ne ptr %41, null
  br i1 %42, label %43, label %56

43:                                               ; preds = %38
  %44 = load ptr, ptr %9, align 8, !tbaa !20
  %45 = getelementptr inbounds nuw %struct.CONF_VALUE, ptr %44, i32 0, i32 2
  %46 = load ptr, ptr %45, align 8, !tbaa !24
  %47 = call i32 @strcmp(ptr noundef %46, ptr noundef @.str.38) #6
  %48 = icmp eq i32 %47, 0
  br i1 %48, label %49, label %56

49:                                               ; preds = %43
  %50 = load ptr, ptr %6, align 8, !tbaa !18
  %51 = load ptr, ptr %8, align 8, !tbaa !8
  %52 = call i32 @copy_email(ptr noundef %50, ptr noundef %51, i32 noundef 0)
  %53 = icmp ne i32 %52, 0
  br i1 %53, label %55, label %54

54:                                               ; preds = %49
  br label %103

55:                                               ; preds = %49
  br label %97

56:                                               ; preds = %43, %38, %28
  %57 = load ptr, ptr %9, align 8, !tbaa !20
  %58 = getelementptr inbounds nuw %struct.CONF_VALUE, ptr %57, i32 0, i32 1
  %59 = load ptr, ptr %58, align 8, !tbaa !21
  %60 = call i32 @ossl_v3_name_cmp(ptr noundef %59, ptr noundef @.str.10)
  %61 = icmp eq i32 %60, 0
  br i1 %61, label %62, label %80

62:                                               ; preds = %56
  %63 = load ptr, ptr %9, align 8, !tbaa !20
  %64 = getelementptr inbounds nuw %struct.CONF_VALUE, ptr %63, i32 0, i32 2
  %65 = load ptr, ptr %64, align 8, !tbaa !24
  %66 = icmp ne ptr %65, null
  br i1 %66, label %67, label %80

67:                                               ; preds = %62
  %68 = load ptr, ptr %9, align 8, !tbaa !20
  %69 = getelementptr inbounds nuw %struct.CONF_VALUE, ptr %68, i32 0, i32 2
  %70 = load ptr, ptr %69, align 8, !tbaa !24
  %71 = call i32 @strcmp(ptr noundef %70, ptr noundef @.str.39) #6
  %72 = icmp eq i32 %71, 0
  br i1 %72, label %73, label %80

73:                                               ; preds = %67
  %74 = load ptr, ptr %6, align 8, !tbaa !18
  %75 = load ptr, ptr %8, align 8, !tbaa !8
  %76 = call i32 @copy_email(ptr noundef %74, ptr noundef %75, i32 noundef 1)
  %77 = icmp ne i32 %76, 0
  br i1 %77, label %79, label %78

78:                                               ; preds = %73
  br label %103

79:                                               ; preds = %73
  br label %96

80:                                               ; preds = %67, %62, %56
  call void @llvm.lifetime.start.p0(i64 8, ptr %13) #5
  %81 = load ptr, ptr %5, align 8, !tbaa !3
  %82 = load ptr, ptr %6, align 8, !tbaa !18
  %83 = load ptr, ptr %9, align 8, !tbaa !20
  %84 = call ptr @v2i_GENERAL_NAME(ptr noundef %81, ptr noundef %82, ptr noundef %83)
  store ptr %84, ptr %13, align 8, !tbaa !14
  %85 = icmp eq ptr %84, null
  br i1 %85, label %86, label %87

86:                                               ; preds = %80
  store i32 5, ptr %12, align 4
  br label %93

87:                                               ; preds = %80
  %88 = load ptr, ptr %8, align 8, !tbaa !8
  %89 = call ptr @ossl_check_GENERAL_NAME_sk_type(ptr noundef %88)
  %90 = load ptr, ptr %13, align 8, !tbaa !14
  %91 = call ptr @ossl_check_GENERAL_NAME_type(ptr noundef %90)
  %92 = call i32 @OPENSSL_sk_push(ptr noundef %89, ptr noundef %91)
  store i32 0, ptr %12, align 4
  br label %93

93:                                               ; preds = %86, %87
  call void @llvm.lifetime.end.p0(i64 8, ptr %13) #5
  %94 = load i32, ptr %12, align 4
  switch i32 %94, label %107 [
    i32 0, label %95
    i32 5, label %103
  ]

95:                                               ; preds = %93
  br label %96

96:                                               ; preds = %95, %79
  br label %97

97:                                               ; preds = %96, %55
  br label %98

98:                                               ; preds = %97
  %99 = load i32, ptr %11, align 4, !tbaa !12
  %100 = add nsw i32 %99, 1
  store i32 %100, ptr %11, align 4, !tbaa !12
  br label %24, !llvm.loop !25

101:                                              ; preds = %24
  %102 = load ptr, ptr %8, align 8, !tbaa !8
  store ptr %102, ptr %4, align 8
  store i32 1, ptr %12, align 4
  br label %107

103:                                              ; preds = %93, %78, %54
  %104 = load ptr, ptr %8, align 8, !tbaa !8
  %105 = call ptr @ossl_check_GENERAL_NAME_sk_type(ptr noundef %104)
  %106 = call ptr @ossl_check_GENERAL_NAME_freefunc_type(ptr noundef @GENERAL_NAME_free)
  call void @OPENSSL_sk_pop_free(ptr noundef %105, ptr noundef %106)
  store ptr null, ptr %4, align 8
  store i32 1, ptr %12, align 4
  br label %107

107:                                              ; preds = %103, %101, %93, %22
  call void @llvm.lifetime.end.p0(i64 4, ptr %11) #5
  call void @llvm.lifetime.end.p0(i64 4, ptr %10) #5
  call void @llvm.lifetime.end.p0(i64 8, ptr %9) #5
  call void @llvm.lifetime.end.p0(i64 8, ptr %8) #5
  %108 = load ptr, ptr %4, align 8
  ret ptr %108
}