; Function Attrs: nounwind uwtable
define internal ptr @v2i_subject_alt(ptr noundef readnone captures(none) %0, ptr noundef %1, ptr noundef %2) #1 {
  %4 = tail call i32 @OPENSSL_sk_num(ptr noundef %2) #4
  %5 = tail call ptr @OPENSSL_sk_new_reserve(ptr noundef null, i32 noundef %4) #4
  %6 = icmp eq ptr %5, null
  br i1 %6, label %8, label %.preheader

.preheader:                                       ; preds = %3
  %7 = icmp sgt i32 %4, 0
  br i1 %7, label %.lr.ph, label %.loopexit

8:                                                ; preds = %3
  tail call void @ERR_new() #4
  tail call void @ERR_set_debug(ptr noundef nonnull @.str.15, i32 noundef 389, ptr noundef nonnull @__func__.v2i_subject_alt) #4
  tail call void (i32, i32, ptr, ...) @ERR_set_error(i32 noundef 34, i32 noundef 524303, ptr noundef null) #4
  br label %.loopexit

.lr.ph:                                           ; preds = %.preheader, %38
  %.02736 = phi i32 [ %39, %38 ], [ 0, %.preheader ]
  %9 = tail call ptr @OPENSSL_sk_value(ptr noundef %2, i32 noundef %.02736) #4
  %10 = getelementptr inbounds nuw i8, ptr %9, i64 8
  %11 = load ptr, ptr %10, align 8, !tbaa !5
  %12 = tail call i32 @ossl_v3_name_cmp(ptr noundef %11, ptr noundef nonnull @.str.10) #4
  %13 = icmp eq i32 %12, 0
  br i1 %13, label %14, label %22

14:                                               ; preds = %.lr.ph
  %15 = getelementptr inbounds nuw i8, ptr %9, i64 16
  %16 = load ptr, ptr %15, align 8, !tbaa !11
  %.not = icmp eq ptr %16, null
  br i1 %.not, label %22, label %17

17:                                               ; preds = %14
  %18 = tail call i32 @strcmp(ptr noundef nonnull dereferenceable(1) %16, ptr noundef nonnull dereferenceable(5) @.str.38) #5
  %19 = icmp eq i32 %18, 0
  br i1 %19, label %20, label %22

20:                                               ; preds = %17
  %21 = tail call fastcc i32 @copy_email(ptr noundef %1, ptr noundef %5, i32 noundef 0)
  %.not34 = icmp eq i32 %21, 0
  br i1 %.not34, label %40, label %38

22:                                               ; preds = %17, %14, %.lr.ph
  %23 = load ptr, ptr %10, align 8, !tbaa !5
  %24 = tail call i32 @ossl_v3_name_cmp(ptr noundef %23, ptr noundef nonnull @.str.10) #4
  %25 = icmp eq i32 %24, 0
  br i1 %25, label %26, label %34

26:                                               ; preds = %22
  %27 = getelementptr inbounds nuw i8, ptr %9, i64 16
  %28 = load ptr, ptr %27, align 8, !tbaa !11
  %.not32 = icmp eq ptr %28, null
  br i1 %.not32, label %34, label %29

29:                                               ; preds = %26
  %30 = tail call i32 @strcmp(ptr noundef nonnull dereferenceable(1) %28, ptr noundef nonnull dereferenceable(5) @.str.39) #5
  %31 = icmp eq i32 %30, 0
  br i1 %31, label %32, label %34

32:                                               ; preds = %29
  %33 = tail call fastcc i32 @copy_email(ptr noundef %1, ptr noundef %5, i32 noundef 1)
  %.not33 = icmp eq i32 %33, 0
  br i1 %.not33, label %40, label %38

34:                                               ; preds = %29, %26, %22
  %35 = tail call ptr @v2i_GENERAL_NAME_ex(ptr noundef null, ptr noundef readnone %0, ptr noundef %1, ptr noundef nonnull readonly %9, i32 noundef 0)
  %36 = icmp eq ptr %35, null
  br i1 %36, label %40, label %.thread

.thread:                                          ; preds = %34
  %37 = tail call i32 @OPENSSL_sk_push(ptr noundef nonnull %5, ptr noundef nonnull %35) #4
  br label %38

38:                                               ; preds = %.thread, %20, %32
  %39 = add nuw nsw i32 %.02736, 1
  %exitcond.not = icmp eq i32 %39, %4
  br i1 %exitcond.not, label %.loopexit, label %.lr.ph, !llvm.loop !12

40:                                               ; preds = %34, %32, %20
  tail call void @OPENSSL_sk_pop_free(ptr noundef nonnull %5, ptr noundef nonnull @GENERAL_NAME_free) #4
  br label %.loopexit

.loopexit:                                        ; preds = %38, %.preheader, %40, %8
  %.0 = phi ptr [ null, %8 ], [ null, %40 ], [ %5, %.preheader ], [ %5, %38 ]
  ret ptr %.0
}